(dp0
S'video_test_0000896'
p1
I40
sS'video_test_0000897'
p2
I23
sS'video_test_0000950'
p3
I36
sS'video_test_0001079'
p4
I51
sS'video_test_0000179'
p5
I9
sS'video_test_0000173'
p6
I22
sS'video_test_0001072'
p7
I36
sS'video_test_0001075'
p8
I12
sS'video_test_0001076'
p9
I22
sS'video_test_0000007'
p10
I45
sS'video_test_0000556'
p11
I12
sS'video_test_0000558'
p12
I12
sS'video_test_0001324'
p13
I7
sS'video_validation_0000950'
p14
I93
sS'video_test_0001209'
p15
I45
sS'video_test_0000672'
p16
I31
sS'video_test_0000673'
p17
I22
sS'video_test_0000131'
p18
I22
sS'video_test_0001276'
p19
I24
sS'video_test_0001270'
p20
I21
sS'video_test_0001194'
p21
I23
sS'video_test_0001195'
p22
I45
sS'video_validation_0000270'
p23
I31
sS'video_test_0000004'
p24
I23
sS'video_validation_0000178'
p25
I23
sS'video_validation_0000179'
p26
I23
sS'video_validation_0000174'
p27
I23
sS'video_validation_0000175'
p28
I23
sS'video_validation_0000176'
p29
I23
sS'video_validation_0000177'
p30
I23
sS'video_validation_0000170'
p31
I22
sS'video_validation_0000171'
p32
I23
sS'video_validation_0000172'
p33
I23
sS'video_validation_0000173'
p34
I23
sS'video_validation_0000670'
p35
I68
sS'video_test_0000357'
p36
I22
sS'video_test_0000355'
p37
I51
sS'video_test_0000353'
p38
I23
sS'video_test_0000903'
p39
I9
sS'video_validation_0000417'
p40
I45
sS'video_validation_0000416'
p41
I45
sS'video_validation_0000415'
p42
I45
sS'video_validation_0000414'
p43
I45
sS'video_validation_0000413'
p44
I45
sS'video_validation_0000412'
p45
I45
sS'video_validation_0000411'
p46
I45
sS'video_validation_0000419'
p47
I45
sS'video_validation_0000418'
p48
I45
sS'video_validation_0000488'
p49
I51
sS'video_validation_0000489'
p50
I51
sS'video_validation_0000484'
p51
I51
sS'video_validation_0000485'
p52
I51
sS'video_validation_0000486'
p53
I51
sS'video_validation_0000487'
p54
I51
sS'video_validation_0000481'
p55
I51
sS'video_test_0000324'
p56
I7
sS'video_validation_0000483'
p57
I51
sS'video_validation_0000990'
p58
I97
sS'video_test_0001532'
p59
I26
sS'video_test_0001081'
p60
I26
sS'video_test_0000622'
p61
I23
sS'video_test_0001325'
p62
I24
sS'video_test_0001496'
p63
I24
sS'video_test_0001495'
p64
I51
sS'video_test_0000624'
p65
I26
sS'video_validation_0000901'
p66
I9
sS'video_validation_0000903'
p67
I9
sS'video_validation_0000902'
p68
I9
sS'video_validation_0000905'
p69
I9
sS'video_validation_0000904'
p70
I9
sS'video_validation_0000907'
p71
I9
sS'video_validation_0000906'
p72
I9
sS'video_validation_0000909'
p73
I9
sS'video_validation_0000908'
p74
I9
sS'video_test_0001038'
p75
I7
sS'video_validation_0000860'
p76
I85
sS'video_test_0001391'
p77
I45
sS'video_test_0001146'
p78
I12
sS'video_test_0001247'
p79
I12
sS'video_test_0000626'
p80
I68
sS'video_test_0000771'
p81
I12
sS'video_validation_0000690'
p82
I7
sS'video_validation_0000288'
p83
I33
sS'video_validation_0000289'
p84
I33
sS'video_validation_0000282'
p85
I33
sS'video_validation_0000283'
p86
I33
sS'video_validation_0000281'
p87
I33
sS'video_validation_0000286'
p88
I33
sS'video_validation_0000287'
p89
I33
sS'video_validation_0000284'
p90
I33
sS'video_validation_0000285'
p91
I33
sS'video_test_0000807'
p92
I26
sS'video_test_0000767'
p93
I7
sS'video_test_0000718'
p94
I9
sS'video_test_0000716'
p95
I9
sS'video_test_0000242'
p96
I51
sS'video_test_0000367'
p97
I40
sS'video_test_0000085'
p98
I26
sS'video_test_0000887'
p99
I40
sS'video_test_0000882'
p100
I36
sS'video_test_0000964'
p101
I7
sS'video_test_0000062'
p102
I51
sS'video_test_0000569'
p103
I23
sS'video_test_0000405'
p104
I24
sS'video_test_0000560'
p105
I9
sS'video_validation_0000949'
p106
I93
sS'video_validation_0000948'
p107
I93
sS'video_validation_0000945'
p108
I93
sS'video_validation_0000944'
p109
I93
sS'video_validation_0000947'
p110
I93
sS'video_validation_0000946'
p111
I93
sS'video_validation_0000941'
p112
I93
sS'video_validation_0000940'
p113
I92
sS'video_validation_0000190'
p114
I23
sS'video_validation_0000942'
p115
I93
sS'video_test_0001219'
p116
I51
sS'video_test_0000611'
p117
I33
sS'video_test_0000617'
p118
I21
sS'video_validation_0000938'
p119
I92
sS'video_validation_0000939'
p120
I92
sS'video_test_0000665'
p121
I68
sS'video_test_0000664'
p122
I7
sS'video_validation_0000931'
p123
I92
sS'video_validation_0000932'
p124
I33
sS'video_validation_0000933'
p125
I92
sS'video_validation_0000934'
p126
I92
sS'video_validation_0000935'
p127
I92
sS'video_validation_0000936'
p128
I92
sS'video_validation_0000937'
p129
I92
sS'video_test_0001134'
p130
I22
sS'video_test_0001135'
p131
I31
sS'video_test_0001182'
p132
I7
sS'video_validation_0000790'
p133
I79
sS'video_validation_0000859'
p134
I85
sS'video_validation_0000169'
p135
I22
sS'video_validation_0000168'
p136
I22
sS'video_validation_0000167'
p137
I22
sS'video_validation_0000166'
p138
I22
sS'video_validation_0000165'
p139
I22
sS'video_validation_0000164'
p140
I22
sS'video_validation_0000163'
p141
I22
sS'video_validation_0000162'
p142
I22
sS'video_validation_0000161'
p143
I22
sS'video_validation_0000160'
p144
I21
sS'video_validation_0000989'
p145
I97
sS'video_validation_0000988'
p146
I97
sS'video_validation_0000981'
p147
I97
sS'video_validation_0000983'
p148
I97
sS'video_validation_0000982'
p149
I97
sS'video_validation_0000985'
p150
I97
sS'video_validation_0000984'
p151
I97
sS'video_validation_0000987'
p152
I97
sS'video_validation_0000986'
p153
I97
sS'video_test_0000847'
p154
I33
sS'video_test_0000028'
p155
I33
sS'video_test_0000844'
p156
I22
sS'video_validation_0000420'
p157
I45
sS'video_test_0000437'
p158
I22
sS'video_test_0000724'
p159
I22
sS'video_test_0000448'
p160
I24
sS'video_test_0000444'
p161
I68
sS'video_test_0000443'
p162
I36
sS'video_test_0000442'
p163
I40
sS'video_validation_0000490'
p164
I51
sS'video_test_0001314'
p165
I45
sS'video_test_0001098'
p166
I40
sS'video_test_0001008'
p167
I40
sS'video_test_0001558'
p168
I22
sS'video_test_0000538'
p169
I40
sS'video_test_0000113'
p170
I33
sS'video_test_0001369'
p171
I51
sS'video_test_0001255'
p172
I45
sS'video_test_0001257'
p173
I9
sS'video_validation_0000202'
p174
I26
sS'video_validation_0000203'
p175
I26
sS'video_validation_0000201'
p176
I26
sS'video_validation_0000206'
p177
I26
sS'video_validation_0000207'
p178
I26
sS'video_validation_0000204'
p179
I26
sS'video_validation_0000205'
p180
I26
sS'video_validation_0000208'
p181
I26
sS'video_validation_0000209'
p182
I26
sS'video_validation_0000185'
p183
I24
sS'video_test_0001459'
p184
I51
sS'video_validation_0000290'
p185
I33
sS'video_validation_0000059'
p186
I12
sS'video_validation_0000058'
p187
I12
sS'video_validation_0000057'
p188
I12
sS'video_validation_0000056'
p189
I12
sS'video_validation_0000055'
p190
I12
sS'video_validation_0000054'
p191
I12
sS'video_validation_0000053'
p192
I12
sS'video_validation_0000052'
p193
I12
sS'video_validation_0000051'
p194
I12
sS'video_test_0000278'
p195
I22
sS'video_test_0000270'
p196
I36
sS'video_test_0000273'
p197
I23
sS'video_test_0000372'
p198
I36
sS'video_test_0000379'
p199
I51
sS'video_test_0000873'
p200
I7
sS'video_test_0000051'
p201
I12
sS'video_validation_0000370'
p202
I40
sS'video_test_0000058'
p203
I21
sS'video_test_0000504'
p204
I21
sS'video_test_0000505'
p205
I21
sS'video_test_0000577'
p206
I12
sS'video_validation_0000181'
p207
I23
sS'video_validation_0000180'
p208
I23
sS'video_validation_0000183'
p209
I23
sS'video_validation_0000182'
p210
I24
sS'video_test_0001512'
p211
I31
sS'video_validation_0000184'
p212
I23
sS'video_validation_0000187'
p213
I23
sS'video_validation_0000186'
p214
I24
sS'video_validation_0000189'
p215
I23
sS'video_validation_0000188'
p216
I23
sS'video_test_0000188'
p217
I40
sS'video_test_0000601'
p218
I9
sS'video_test_0000602'
p219
I26
sS'video_test_0001229'
p220
I36
sS'video_test_0001358'
p221
I23
sS'video_test_0000698'
p222
I21
sS'video_test_0001058'
p223
I36
sS'video_test_0000989'
p224
I26
sS'video_test_0000981'
p225
I23
sS'video_test_0000714'
p226
I7
sS'video_test_0000285'
p227
I22
sS'video_test_0001127'
p228
I33
sS'video_validation_0000787'
p229
I79
sS'video_validation_0000786'
p230
I79
sS'video_validation_0000785'
p231
I79
sS'video_validation_0000784'
p232
I79
sS'video_validation_0000783'
p233
I79
sS'video_validation_0000782'
p234
I79
sS'video_validation_0000781'
p235
I79
sS'video_validation_0000789'
p236
I79
sS'video_validation_0000788'
p237
I79
sS'video_validation_0000152'
p238
I21
sS'video_validation_0000153'
p239
I21
sS'video_validation_0000151'
p240
I21
sS'video_validation_0000156'
p241
I21
sS'video_validation_0000157'
p242
I21
sS'video_validation_0000154'
p243
I21
sS'video_validation_0000155'
p244
I21
sS'video_validation_0000158'
p245
I21
sS'video_validation_0000159'
p246
I21
sS'video_test_0000238'
p247
I33
sS'video_test_0001446'
p248
I45
sS'video_test_0000785'
p249
I22
sS'video_test_0000786'
p250
I23
sS'video_test_0000392'
p251
I23
sS'video_test_0000839'
p252
I40
sS'video_test_0000737'
p253
I21
sS'video_test_0000308'
p254
I40
sS'video_test_0000730'
p255
I22
sS'video_test_0001313'
p256
I23
sS'video_validation_0000320'
p257
I36
sS'video_test_0000940'
p258
I22
sS'video_test_0000946'
p259
I7
sS'video_test_0001064'
p260
I9
sS'video_test_0001549'
p261
I31
sS'video_test_0000549'
p262
I23
sS'video_test_0001460'
p263
I23
sS'video_test_0001468'
p264
I21
sS'video_test_0001307'
p265
I21
sS'video_test_0001309'
p266
I26
sS'video_test_0001267'
p267
I12
sS'video_test_0001281'
p268
I51
sS'video_validation_0000210'
p269
I26
sS'video_test_0001164'
p270
I21
sS'video_test_0001163'
p271
I33
sS'video_validation_0000261'
p272
I31
sS'video_validation_0000262'
p273
I31
sS'video_validation_0000263'
p274
I31
sS'video_validation_0000264'
p275
I31
sS'video_validation_0000265'
p276
I31
sS'video_validation_0000266'
p277
I7
sS'video_validation_0000267'
p278
I31
sS'video_validation_0000268'
p279
I31
sS'video_validation_0000269'
p280
I31
sS'video_validation_0000060'
p281
I12
sS'video_test_0000740'
p282
I21
sS'video_test_0000293'
p283
I45
sS'video_validation_0000668'
p284
I68
sS'video_validation_0000669'
p285
I68
sS'video_validation_0000664'
p286
I68
sS'video_validation_0000665'
p287
I51
sS'video_validation_0000666'
p288
I68
sS'video_validation_0000667'
p289
I68
sS'video_validation_0000661'
p290
I68
sS'video_validation_0000662'
p291
I68
sS'video_validation_0000663'
p292
I68
sS'video_test_0000864'
p293
I45
sS'video_validation_0000369'
p294
I40
sS'video_validation_0000368'
p295
I40
sS'video_validation_0000365'
p296
I40
sS'video_validation_0000364'
p297
I40
sS'video_validation_0000367'
p298
I40
sS'video_validation_0000366'
p299
I40
sS'video_validation_0000361'
p300
I40
sS'video_test_0000046'
p301
I33
sS'video_validation_0000363'
p302
I40
sS'video_validation_0000362'
p303
I40
sS'video_test_0000464'
p304
I68
sS'video_test_0000461'
p305
I26
sS'video_validation_0000943'
p306
I93
sS'video_test_0001447'
p307
I7
sS'video_test_0001508'
p308
I31
sS'video_validation_0000318'
p309
I36
sS'video_validation_0000319'
p310
I36
sS'video_validation_0000311'
p311
I36
sS'video_validation_0000312'
p312
I36
sS'video_validation_0000313'
p313
I36
sS'video_validation_0000314'
p314
I36
sS'video_validation_0000315'
p315
I36
sS'video_validation_0000316'
p316
I36
sS'video_validation_0000317'
p317
I36
sS'video_test_0000635'
p318
I21
sS'video_test_0001339'
p319
I22
sS'video_validation_0000482'
p320
I51
sS'video_test_0001483'
p321
I21
sS'video_validation_0000857'
p322
I85
sS'video_validation_0000856'
p323
I85
sS'video_validation_0000855'
p324
I85
sS'video_validation_0000854'
p325
I85
sS'video_validation_0000853'
p326
I85
sS'video_validation_0000852'
p327
I85
sS'video_validation_0000851'
p328
I85
sS'video_test_0001431'
p329
I36
sS'video_test_0001433'
p330
I31
sS'video_test_0001343'
p331
I9
sS'video_validation_0000910'
p332
I9
sS'video_validation_0000858'
p333
I85
sS'video_test_0000798'
p334
I23
sS'video_test_0001159'
p335
I45
sS'video_test_0000220'
p336
I40
sS'video_validation_0000688'
p337
I7
sS'video_validation_0000689'
p338
I7
sS'video_validation_0000686'
p339
I7
sS'video_validation_0000687'
p340
I7
sS'video_validation_0000684'
p341
I7
sS'video_validation_0000685'
p342
I7
sS'video_validation_0000682'
p343
I7
sS'video_validation_0000683'
p344
I7
sS'video_validation_0000681'
p345
I7
sS'video_test_0000796'
p346
I23
sS'video_test_0000412'
p347
I12
sS'video_test_0000413'
p348
I31
sS'video_test_0000250'
p349
I9
sS'video_test_0000254'
p350
I26
s.